target datalayout = "e-m:e-p270:32:32-p271:32:32-p272:64:64-i64:64-i128:128-f80:128-n8:16:32:64-S128"
target triple = "x86_64-pc-linux-gnu"

%struct.ident_t = type { i32, i32, i32, i32, ptr }
%"class.ncnn::Requantize" = type { %"class.ncnn::Layer", i32, i32, i32, i32, %"class.ncnn::Mat", %"class.ncnn::Mat", %"class.ncnn::Mat", %"class.ncnn::Mat" }
%"class.ncnn::Layer" = type { ptr, i8, i8, i8, i8, i8, i8, i8, i8, i8, i8, i8, i8, i8, i8, i8, i8, i8, i8, i8, i8, i32, ptr, i32, %"class.std::__cxx11::basic_string", %"class.std::__cxx11::basic_string", %"class.std::vector", %"class.std::vector", %"class.std::vector.3", %"class.std::vector.3" }
%"class.std::__cxx11::basic_string" = type { %"struct.std::__cxx11::basic_string<char>::_Alloc_hider", i64, %union.anon }
%"struct.std::__cxx11::basic_string<char>::_Alloc_hider" = type { ptr }
%union.anon = type { i64, [8 x i8] }
%"class.std::vector" = type { %"struct.std::_Vector_base" }
%"struct.std::_Vector_base" = type { %"struct.std::_Vector_base<int, std::allocator<int>>::_Vector_impl" }
%"struct.std::_Vector_base<int, std::allocator<int>>::_Vector_impl" = type { %"struct.std::_Vector_base<int, std::allocator<int>>::_Vector_impl_data" }
%"struct.std::_Vector_base<int, std::allocator<int>>::_Vector_impl_data" = type { ptr, ptr, ptr }
%"class.std::vector.3" = type { %"struct.std::_Vector_base.4" }
%"struct.std::_Vector_base.4" = type { %"struct.std::_Vector_base<ncnn::Mat, std::allocator<ncnn::Mat>>::_Vector_impl" }
%"struct.std::_Vector_base<ncnn::Mat, std::allocator<ncnn::Mat>>::_Vector_impl" = type { %"struct.std::_Vector_base<ncnn::Mat, std::allocator<ncnn::Mat>>::_Vector_impl_data" }
%"struct.std::_Vector_base<ncnn::Mat, std::allocator<ncnn::Mat>>::_Vector_impl_data" = type { ptr, ptr, ptr }
%"class.ncnn::Mat" = type { ptr, ptr, i64, i32, ptr, i32, i32, i32, i32, i32, i64 }
%"class.ncnn::Option" = type { i8, i32, ptr, ptr, i32, i8, i8, i8, i8, i8, i8, i8, i8, i8, i8, i8, i8, i8, i8, i8, i8, i8, i8, i8, i8, i32, i8, i8, i8, i8, i8, i8, i8, i8, i8, i8, i8, i8 }

@2 = private unnamed_addr constant %struct.ident_t { i32 0, i32 2, i32 0, i32 22, ptr @0 }, align 8

; Function Attrs: alwaysinline mustprogress nounwind uwtable
define linkonce_odr hidden noundef i64 @_ZNK4ncnn3Mat5totalEv(ptr noundef nonnull align 8 dereferenceable(72) %0) #3 comdat align 2 {
  %2 = alloca ptr, align 8
  store ptr %0, ptr %2, align 8, !tbaa !39
  %3 = load ptr, ptr %2, align 8
  %4 = getelementptr inbounds nuw %"class.ncnn::Mat", ptr %3, i32 0, i32 10
  %5 = load i64, ptr %4, align 8, !tbaa !62
  %6 = getelementptr inbounds nuw %"class.ncnn::Mat", ptr %3, i32 0, i32 9
  %7 = load i32, ptr %6, align 8, !tbaa !46
  %8 = sext i32 %7 to i64
  %9 = mul i64 %5, %8
  ret i64 %9
}

; Function Attrs: alwaysinline mustprogress nounwind uwtable
define linkonce_odr hidden noundef nonnull align 4 dereferenceable(4) ptr @_ZNK4ncnn3MatixEm(ptr noundef nonnull align 8 dereferenceable(72) %0, i64 noundef %1) #3 comdat align 2 {
  %3 = alloca ptr, align 8
  %4 = alloca i64, align 8
  store ptr %0, ptr %3, align 8, !tbaa !39
  store i64 %1, ptr %4, align 8, !tbaa !64
  %5 = load ptr, ptr %3, align 8
  %6 = getelementptr inbounds nuw %"class.ncnn::Mat", ptr %5, i32 0, i32 0
  %7 = load ptr, ptr %6, align 8, !tbaa !56
  %8 = load i64, ptr %4, align 8, !tbaa !64
  %9 = getelementptr inbounds nuw float, ptr %7, i64 %8
  ret ptr %9
}

; Function Attrs: alwaysinline mustprogress nounwind uwtable
define linkonce_odr hidden noundef ptr @_ZN4ncnn3MatcvPT_IaEEv(ptr noundef nonnull align 8 dereferenceable(72) %0) #3 comdat align 2 {
  %2 = alloca ptr, align 8
  store ptr %0, ptr %2, align 8, !tbaa !39
  %3 = load ptr, ptr %2, align 8
  %4 = getelementptr inbounds nuw %"class.ncnn::Mat", ptr %3, i32 0, i32 0
  %5 = load ptr, ptr %4, align 8, !tbaa !56
  ret ptr %5
}

; Function Attrs: alwaysinline mustprogress nounwind uwtable
define linkonce_odr hidden noundef ptr @_ZNK4ncnn3MatcvPKT_IiEEv(ptr noundef nonnull align 8 dereferenceable(72) %0) #3 comdat align 2 {
  %2 = alloca ptr, align 8
  store ptr %0, ptr %2, align 8, !tbaa !39
  %3 = load ptr, ptr %2, align 8
  %4 = getelementptr inbounds nuw %"class.ncnn::Mat", ptr %3, i32 0, i32 0
  %5 = load ptr, ptr %4, align 8, !tbaa !56
  ret ptr %5
}

; Function Attrs: alwaysinline mustprogress uwtable
define linkonce_odr hidden noundef zeroext i1 @_ZNK4ncnn3Mat5emptyEv(ptr noundef nonnull align 8 dereferenceable(72) %0) #5 comdat align 2 {
  %2 = alloca ptr, align 8
  store ptr %0, ptr %2, align 8, !tbaa !39
  %3 = load ptr, ptr %2, align 8
  %4 = getelementptr inbounds nuw %"class.ncnn::Mat", ptr %3, i32 0, i32 0
  %5 = load ptr, ptr %4, align 8, !tbaa !56
  %6 = icmp eq ptr %5, null
  br i1 %6, label %10, label %7

7:                                                ; preds = %1
  %8 = call noundef i64 @_ZNK4ncnn3Mat5totalEv(ptr noundef nonnull align 8 dereferenceable(72) %3)
  %9 = icmp eq i64 %8, 0
  br label %10

10:                                               ; preds = %7, %1
  %11 = phi i1 [ true, %1 ], [ %9, %7 ]
  ret i1 %11
}

; Function Attrs: mustprogress uwtable
define hidden noundef i32 @_ZNK4ncnn10Requantize7forwardERKNS_3MatERS1_RKNS_6OptionE(ptr noundef nonnull align 8 dereferenceable(512) %0, ptr noundef nonnull align 8 dereferenceable(72) %1, ptr noundef nonnull align 8 dereferenceable(72) %2, ptr noundef nonnull align 8 dereferenceable(64) %3) unnamed_addr #1 align 2 {
  %5 = alloca i32, align 4
  %6 = alloca ptr, align 8
  %7 = alloca ptr, align 8
  %8 = alloca ptr, align 8
  %9 = alloca ptr, align 8
  %10 = alloca i32, align 4
  %11 = alloca i32, align 4
  %12 = alloca i32, align 4
  %13 = alloca i32, align 4
  %14 = alloca i32, align 4
  %15 = alloca ptr, align 8
  %16 = alloca ptr, align 8
  %17 = alloca float, align 4
  %18 = alloca float, align 4
  %19 = alloca float, align 4
  %20 = call i32 @__kmpc_global_thread_num(ptr @2)
  store ptr %0, ptr %6, align 8, !tbaa !4
  store ptr %1, ptr %7, align 8, !tbaa !39
  store ptr %2, ptr %8, align 8, !tbaa !39
  store ptr %3, ptr %9, align 8, !tbaa !40
  %21 = load ptr, ptr %6, align 8
  call void @llvm.lifetime.start.p0(i64 4, ptr %10) #9
  %22 = load ptr, ptr %7, align 8, !tbaa !39
  %23 = getelementptr inbounds nuw %"class.ncnn::Mat", ptr %22, i32 0, i32 5
  %24 = load i32, ptr %23, align 8, !tbaa !42
  store i32 %24, ptr %10, align 4, !tbaa !43
  call void @llvm.lifetime.start.p0(i64 4, ptr %11) #9
  %25 = load ptr, ptr %7, align 8, !tbaa !39
  %26 = getelementptr inbounds nuw %"class.ncnn::Mat", ptr %25, i32 0, i32 6
  %27 = load i32, ptr %26, align 4, !tbaa !44
  store i32 %27, ptr %11, align 4, !tbaa !43
  call void @llvm.lifetime.start.p0(i64 4, ptr %12) #9
  %28 = load ptr, ptr %7, align 8, !tbaa !39
  %29 = getelementptr inbounds nuw %"class.ncnn::Mat", ptr %28, i32 0, i32 7
  %30 = load i32, ptr %29, align 8, !tbaa !45
  store i32 %30, ptr %12, align 4, !tbaa !43
  call void @llvm.lifetime.start.p0(i64 4, ptr %13) #9
  %31 = load ptr, ptr %7, align 8, !tbaa !39
  %32 = getelementptr inbounds nuw %"class.ncnn::Mat", ptr %31, i32 0, i32 9
  %33 = load i32, ptr %32, align 8, !tbaa !46
  store i32 %33, ptr %13, align 4, !tbaa !43
  %34 = load i32, ptr %10, align 4, !tbaa !43
  %35 = icmp eq i32 %34, 1
  br i1 %35, label %36, label %75

36:                                               ; preds = %4
  %37 = load ptr, ptr %8, align 8, !tbaa !39
  %38 = load i32, ptr %11, align 4, !tbaa !43
  %39 = load ptr, ptr %9, align 8, !tbaa !40
  %40 = getelementptr inbounds nuw %"class.ncnn::Option", ptr %39, i32 0, i32 2
  %41 = load ptr, ptr %40, align 8, !tbaa !47
  call void @_ZN4ncnn3Mat6createEimPNS_9AllocatorE(ptr noundef nonnull align 8 dereferenceable(72) %37, i32 noundef %38, i64 noundef 1, ptr noundef %41)
  %42 = load ptr, ptr %8, align 8, !tbaa !39
  %43 = call noundef zeroext i1 @_ZNK4ncnn3Mat5emptyEv(ptr noundef nonnull align 8 dereferenceable(72) %42)
  br i1 %43, label %44, label %45

44:                                               ; preds = %36
  store i32 -100, ptr %5, align 4
  store i32 1, ptr %14, align 4
  br label %115

45:                                               ; preds = %36
  call void @llvm.lifetime.start.p0(i64 8, ptr %15) #9
  %46 = load ptr, ptr %7, align 8, !tbaa !39
  %47 = call noundef ptr @_ZNK4ncnn3MatcvPKT_IiEEv(ptr noundef nonnull align 8 dereferenceable(72) %46)
  store ptr %47, ptr %15, align 8, !tbaa !49
  call void @llvm.lifetime.start.p0(i64 8, ptr %16) #9
  %48 = load ptr, ptr %8, align 8, !tbaa !39
  %49 = call noundef ptr @_ZN4ncnn3MatcvPT_IaEEv(ptr noundef nonnull align 8 dereferenceable(72) %48)
  store ptr %49, ptr %16, align 8, !tbaa !50
  call void @llvm.lifetime.start.p0(i64 4, ptr %17) #9
  %50 = getelementptr inbounds nuw %"class.ncnn::Requantize", ptr %21, i32 0, i32 6
  %51 = call noundef nonnull align 4 dereferenceable(4) ptr @_ZNK4ncnn3MatixEm(ptr noundef nonnull align 8 dereferenceable(72) %50, i64 noundef 0)
  %52 = load float, ptr %51, align 4, !tbaa !51
  store float %52, ptr %17, align 4, !tbaa !51
  call void @llvm.lifetime.start.p0(i64 4, ptr %18) #9
  %53 = getelementptr inbounds nuw %"class.ncnn::Requantize", ptr %21, i32 0, i32 3
  %54 = load i32, ptr %53, align 8, !tbaa !35
  %55 = icmp eq i32 %54, 0
  br i1 %55, label %56, label %57

56:                                               ; preds = %45
  br label %61

57:                                               ; preds = %45
  %58 = getelementptr inbounds nuw %"class.ncnn::Requantize", ptr %21, i32 0, i32 8
  %59 = call noundef nonnull align 4 dereferenceable(4) ptr @_ZNK4ncnn3MatixEm(ptr noundef nonnull align 8 dereferenceable(72) %58, i64 noundef 0)
  %60 = load float, ptr %59, align 4, !tbaa !51
  br label %61

61:                                               ; preds = %57, %56
  %62 = phi fast float [ 0.000000e+00, %56 ], [ %60, %57 ]
  store float %62, ptr %18, align 4, !tbaa !51
  call void @llvm.lifetime.start.p0(i64 4, ptr %19) #9
  %63 = getelementptr inbounds nuw %"class.ncnn::Requantize", ptr %21, i32 0, i32 7
  %64 = call noundef nonnull align 4 dereferenceable(4) ptr @_ZNK4ncnn3MatixEm(ptr noundef nonnull align 8 dereferenceable(72) %63, i64 noundef 0)
  %65 = load float, ptr %64, align 4, !tbaa !51
  store float %65, ptr %19, align 4, !tbaa !51
  %66 = load ptr, ptr %15, align 8, !tbaa !49
  %67 = load ptr, ptr %16, align 8, !tbaa !50
  %68 = load float, ptr %17, align 4, !tbaa !51
  %69 = load float, ptr %18, align 4, !tbaa !51
  %70 = load float, ptr %19, align 4, !tbaa !51
  %71 = getelementptr inbounds nuw %"class.ncnn::Requantize", ptr %21, i32 0, i32 4
  %72 = load i32, ptr %71, align 4, !tbaa !36
  %73 = getelementptr inbounds nuw %"class.ncnn::Requantize", ptr %21, i32 0, i32 5
  %74 = load i32, ptr %11, align 4, !tbaa !43
  call void @_ZN4ncnnL10requantizeEPKiPafffiRKNS_3MatEi(ptr noundef %66, ptr noundef %67, float noundef nofpclass(nan inf) %68, float noundef nofpclass(nan inf) %69, float noundef nofpclass(nan inf) %70, i32 noundef %72, ptr noundef nonnull align 8 dereferenceable(72) %73, i32 noundef %74)
  call void @llvm.lifetime.end.p0(i64 4, ptr %19) #9
  call void @llvm.lifetime.end.p0(i64 4, ptr %18) #9
  call void @llvm.lifetime.end.p0(i64 4, ptr %17) #9
  call void @llvm.lifetime.end.p0(i64 8, ptr %16) #9
  call void @llvm.lifetime.end.p0(i64 8, ptr %15) #9
  br label %75

75:                                               ; preds = %61, %4
  %76 = load i32, ptr %10, align 4, !tbaa !43
  %77 = icmp eq i32 %76, 2
  br i1 %77, label %78, label %94

78:                                               ; preds = %75
  %79 = load ptr, ptr %8, align 8, !tbaa !39
  %80 = load i32, ptr %11, align 4, !tbaa !43
  %81 = load i32, ptr %12, align 4, !tbaa !43
  %82 = load ptr, ptr %9, align 8, !tbaa !40
  %83 = getelementptr inbounds nuw %"class.ncnn::Option", ptr %82, i32 0, i32 2
  %84 = load ptr, ptr %83, align 8, !tbaa !47
  call void @_ZN4ncnn3Mat6createEiimPNS_9AllocatorE(ptr noundef nonnull align 8 dereferenceable(72) %79, i32 noundef %80, i32 noundef %81, i64 noundef 1, ptr noundef %84)
  %85 = load ptr, ptr %8, align 8, !tbaa !39
  %86 = call noundef zeroext i1 @_ZNK4ncnn3Mat5emptyEv(ptr noundef nonnull align 8 dereferenceable(72) %85)
  br i1 %86, label %87, label %88

87:                                               ; preds = %78
  store i32 -100, ptr %5, align 4
  store i32 1, ptr %14, align 4
  br label %115

88:                                               ; preds = %78
  %89 = load ptr, ptr %9, align 8, !tbaa !40
  %90 = getelementptr inbounds nuw %"class.ncnn::Option", ptr %89, i32 0, i32 1
  %91 = load i32, ptr %90, align 4, !tbaa !53
  call void @__kmpc_push_num_threads(ptr @2, i32 %20, i32 %91)
  %92 = load ptr, ptr %7, align 8, !tbaa !39
  %93 = load ptr, ptr %8, align 8, !tbaa !39
  call void (ptr, i32, ptr, ...) @__kmpc_fork_call(ptr @2, i32 5, ptr @_ZNK4ncnn10Requantize7forwardERKNS_3MatERS1_RKNS_6OptionE.omp_outlined, ptr %12, ptr %92, ptr %93, ptr %21, ptr %11)
  br label %94

94:                                               ; preds = %88, %75
  %95 = load i32, ptr %10, align 4, !tbaa !43
  %96 = icmp eq i32 %95, 3
  br i1 %96, label %97, label %114

97:                                               ; preds = %94
  %98 = load ptr, ptr %8, align 8, !tbaa !39
  %99 = load i32, ptr %11, align 4, !tbaa !43
  %100 = load i32, ptr %12, align 4, !tbaa !43
  %101 = load i32, ptr %13, align 4, !tbaa !43
  %102 = load ptr, ptr %9, align 8, !tbaa !40
  %103 = getelementptr inbounds nuw %"class.ncnn::Option", ptr %102, i32 0, i32 2
  %104 = load ptr, ptr %103, align 8, !tbaa !47
  call void @_ZN4ncnn3Mat6createEiiimPNS_9AllocatorE(ptr noundef nonnull align 8 dereferenceable(72) %98, i32 noundef %99, i32 noundef %100, i32 noundef %101, i64 noundef 1, ptr noundef %104)
  %105 = load ptr, ptr %8, align 8, !tbaa !39
  %106 = call noundef zeroext i1 @_ZNK4ncnn3Mat5emptyEv(ptr noundef nonnull align 8 dereferenceable(72) %105)
  br i1 %106, label %107, label %108

107:                                              ; preds = %97
  store i32 -100, ptr %5, align 4
  store i32 1, ptr %14, align 4
  br label %115

108:                                              ; preds = %97
  %109 = load ptr, ptr %9, align 8, !tbaa !40
  %110 = getelementptr inbounds nuw %"class.ncnn::Option", ptr %109, i32 0, i32 1
  %111 = load i32, ptr %110, align 4, !tbaa !53
  call void @__kmpc_push_num_threads(ptr @2, i32 %20, i32 %111)
  %112 = load ptr, ptr %7, align 8, !tbaa !39
  %113 = load ptr, ptr %8, align 8, !tbaa !39
  call void (ptr, i32, ptr, ...) @__kmpc_fork_call(ptr @2, i32 6, ptr @_ZNK4ncnn10Requantize7forwardERKNS_3MatERS1_RKNS_6OptionE.omp_outlined.1, ptr %13, ptr %112, ptr %113, ptr %21, ptr %11, ptr %12)
  br label %114

114:                                              ; preds = %108, %94
  store i32 0, ptr %5, align 4
  store i32 1, ptr %14, align 4
  br label %115

115:                                              ; preds = %114, %107, %87, %44
  call void @llvm.lifetime.end.p0(i64 4, ptr %13) #9
  call void @llvm.lifetime.end.p0(i64 4, ptr %12) #9
  call void @llvm.lifetime.end.p0(i64 4, ptr %11) #9
  call void @llvm.lifetime.end.p0(i64 4, ptr %10) #9
  %116 = load i32, ptr %5, align 4
  ret i32 %116
}