; Function Attrs: mustprogress uwtable
define hidden noundef range(i32 -100, 1) i32 @_ZNK4ncnn10Requantize7forwardERKNS_3MatERS1_RKNS_6OptionE(ptr noundef nonnull align 8 dereferenceable(512) %0, ptr noundef nonnull align 8 dereferenceable(72) %1, ptr noundef nonnull align 8 dereferenceable(72) %2, ptr noundef nonnull readonly align 8 captures(none) dereferenceable(64) %3) unnamed_addr #1 align 2 {
  %5 = alloca i32, align 4
  %6 = alloca i32, align 4
  %7 = alloca i32, align 4
  %8 = tail call i32 @__kmpc_global_thread_num(ptr nonnull @2)
  %9 = getelementptr inbounds nuw i8, ptr %1, i64 40
  %10 = load i32, ptr %9, align 8, !tbaa !39
  call void @llvm.lifetime.start.p0(i64 4, ptr nonnull %5) #10
  %11 = getelementptr inbounds nuw i8, ptr %1, i64 44
  %12 = load i32, ptr %11, align 4, !tbaa !40
  store i32 %12, ptr %5, align 4, !tbaa !44
  call void @llvm.lifetime.start.p0(i64 4, ptr nonnull %6) #10
  %13 = getelementptr inbounds nuw i8, ptr %1, i64 48
  %14 = load i32, ptr %13, align 8, !tbaa !41
  store i32 %14, ptr %6, align 4, !tbaa !44
  call void @llvm.lifetime.start.p0(i64 4, ptr nonnull %7) #10
  %15 = getelementptr inbounds nuw i8, ptr %1, i64 56
  %16 = load i32, ptr %15, align 8, !tbaa !43
  store i32 %16, ptr %7, align 4, !tbaa !44
  switch i32 %10, label %_ZNK4ncnn3Mat5emptyEv.exit.thread [
    i32 1, label %17
    i32 2, label %49
    i32 3, label %64
  ]

17:                                               ; preds = %4
  %18 = getelementptr inbounds nuw i8, ptr %3, i64 8
  %19 = load ptr, ptr %18, align 8, !tbaa !45
  tail call void @_ZN4ncnn3Mat6createEimPNS_9AllocatorE(ptr noundef nonnull align 8 dereferenceable(72) %2, i32 noundef %12, i64 noundef 1, ptr noundef %19)
  %20 = load ptr, ptr %2, align 8, !tbaa !16
  %21 = icmp eq ptr %20, null
  br i1 %21, label %_ZNK4ncnn3Mat5emptyEv.exit.thread, label %_ZNK4ncnn3Mat5emptyEv.exit

_ZNK4ncnn3Mat5emptyEv.exit:                       ; preds = %17
  %22 = getelementptr inbounds nuw i8, ptr %2, i64 64
  %23 = load i64, ptr %22, align 8, !tbaa !17
  %24 = getelementptr inbounds nuw i8, ptr %2, i64 56
  %25 = load i32, ptr %24, align 8, !tbaa !43
  %26 = sext i32 %25 to i64
  %27 = mul i64 %23, %26
  %28 = icmp eq i64 %27, 0
  br i1 %28, label %_ZNK4ncnn3Mat5emptyEv.exit.thread, label %29

29:                                               ; preds = %_ZNK4ncnn3Mat5emptyEv.exit
  %30 = load ptr, ptr %1, align 8, !tbaa !16
  %31 = getelementptr inbounds nuw i8, ptr %0, i64 296
  %32 = load ptr, ptr %31, align 8, !tbaa !16
  %33 = load float, ptr %32, align 4, !tbaa !47
  %34 = getelementptr inbounds nuw i8, ptr %0, i64 216
  %35 = load i32, ptr %34, align 8, !tbaa !35
  %36 = icmp eq i32 %35, 0
  br i1 %36, label %41, label %37

37:                                               ; preds = %29
  %38 = getelementptr inbounds nuw i8, ptr %0, i64 440
  %39 = load ptr, ptr %38, align 8, !tbaa !16
  %40 = load float, ptr %39, align 4, !tbaa !47
  br label %41

41:                                               ; preds = %29, %37
  %42 = phi fast float [ %40, %37 ], [ 0.000000e+00, %29 ]
  %43 = getelementptr inbounds nuw i8, ptr %0, i64 368
  %44 = load ptr, ptr %43, align 8, !tbaa !16
  %45 = load float, ptr %44, align 4, !tbaa !47
  %46 = getelementptr inbounds nuw i8, ptr %0, i64 220
  %47 = load i32, ptr %46, align 4, !tbaa !36
  %48 = getelementptr inbounds nuw i8, ptr %0, i64 224
  tail call fastcc void @_ZN4ncnnL10requantizeEPKiPafffiRKNS_3MatEi(ptr noundef %30, ptr noundef nonnull %20, float noundef nofpclass(nan inf) %33, float noundef nofpclass(nan inf) %42, float noundef nofpclass(nan inf) %45, i32 noundef %47, ptr noundef nonnull align 8 dereferenceable(72) %48, i32 noundef %12)
  br label %_ZNK4ncnn3Mat5emptyEv.exit.thread

49:                                               ; preds = %4
  %50 = getelementptr inbounds nuw i8, ptr %3, i64 8
  %51 = load ptr, ptr %50, align 8, !tbaa !45
  tail call void @_ZN4ncnn3Mat6createEiimPNS_9AllocatorE(ptr noundef nonnull align 8 dereferenceable(72) %2, i32 noundef %12, i32 noundef %14, i64 noundef 1, ptr noundef %51)
  %52 = load ptr, ptr %2, align 8, !tbaa !16
  %53 = icmp eq ptr %52, null
  br i1 %53, label %_ZNK4ncnn3Mat5emptyEv.exit.thread, label %_ZNK4ncnn3Mat5emptyEv.exit30

_ZNK4ncnn3Mat5emptyEv.exit30:                     ; preds = %49
  %54 = getelementptr inbounds nuw i8, ptr %2, i64 64
  %55 = load i64, ptr %54, align 8, !tbaa !17
  %56 = getelementptr inbounds nuw i8, ptr %2, i64 56
  %57 = load i32, ptr %56, align 8, !tbaa !43
  %58 = sext i32 %57 to i64
  %59 = mul i64 %55, %58
  %60 = icmp eq i64 %59, 0
  br i1 %60, label %_ZNK4ncnn3Mat5emptyEv.exit.thread, label %61

61:                                               ; preds = %_ZNK4ncnn3Mat5emptyEv.exit30
  %62 = getelementptr inbounds nuw i8, ptr %3, i64 4
  %63 = load i32, ptr %62, align 4, !tbaa !49
  tail call void @__kmpc_push_num_threads(ptr nonnull @2, i32 %8, i32 %63)
  call void (ptr, i32, ptr, ...) @__kmpc_fork_call(ptr nonnull @2, i32 5, ptr nonnull @_ZNK4ncnn10Requantize7forwardERKNS_3MatERS1_RKNS_6OptionE.omp_outlined, ptr nonnull %6, ptr nonnull %1, ptr nonnull %2, ptr nonnull %0, ptr nonnull %5)
  br label %_ZNK4ncnn3Mat5emptyEv.exit.thread

64:                                               ; preds = %4
  %65 = getelementptr inbounds nuw i8, ptr %3, i64 8
  %66 = load ptr, ptr %65, align 8, !tbaa !45
  tail call void @_ZN4ncnn3Mat6createEiiimPNS_9AllocatorE(ptr noundef nonnull align 8 dereferenceable(72) %2, i32 noundef %12, i32 noundef %14, i32 noundef %16, i64 noundef 1, ptr noundef %66)
  %67 = load ptr, ptr %2, align 8, !tbaa !16
  %68 = icmp eq ptr %67, null
  br i1 %68, label %_ZNK4ncnn3Mat5emptyEv.exit.thread, label %_ZNK4ncnn3Mat5emptyEv.exit31

_ZNK4ncnn3Mat5emptyEv.exit31:                     ; preds = %64
  %69 = getelementptr inbounds nuw i8, ptr %2, i64 64
  %70 = load i64, ptr %69, align 8, !tbaa !17
  %71 = getelementptr inbounds nuw i8, ptr %2, i64 56
  %72 = load i32, ptr %71, align 8, !tbaa !43
  %73 = sext i32 %72 to i64
  %74 = mul i64 %70, %73
  %75 = icmp eq i64 %74, 0
  br i1 %75, label %_ZNK4ncnn3Mat5emptyEv.exit.thread, label %76

76:                                               ; preds = %_ZNK4ncnn3Mat5emptyEv.exit31
  %77 = getelementptr inbounds nuw i8, ptr %3, i64 4
  %78 = load i32, ptr %77, align 4, !tbaa !49
  tail call void @__kmpc_push_num_threads(ptr nonnull @2, i32 %8, i32 %78)
  call void (ptr, i32, ptr, ...) @__kmpc_fork_call(ptr nonnull @2, i32 6, ptr nonnull @_ZNK4ncnn10Requantize7forwardERKNS_3MatERS1_RKNS_6OptionE.omp_outlined.1, ptr nonnull %7, ptr nonnull %1, ptr nonnull %2, ptr nonnull %0, ptr nonnull %5, ptr nonnull %6)
  br label %_ZNK4ncnn3Mat5emptyEv.exit.thread

_ZNK4ncnn3Mat5emptyEv.exit.thread:                ; preds = %64, %49, %17, %61, %41, %76, %4, %_ZNK4ncnn3Mat5emptyEv.exit31, %_ZNK4ncnn3Mat5emptyEv.exit30, %_ZNK4ncnn3Mat5emptyEv.exit
  %.0 = phi i32 [ -100, %_ZNK4ncnn3Mat5emptyEv.exit ], [ -100, %_ZNK4ncnn3Mat5emptyEv.exit30 ], [ -100, %_ZNK4ncnn3Mat5emptyEv.exit31 ], [ 0, %4 ], [ 0, %41 ], [ 0, %76 ], [ 0, %61 ], [ -100, %17 ], [ -100, %49 ], [ -100, %64 ]
  call void @llvm.lifetime.end.p0(i64 4, ptr nonnull %7) #10
  call void @llvm.lifetime.end.p0(i64 4, ptr nonnull %6) #10
  call void @llvm.lifetime.end.p0(i64 4, ptr nonnull %5) #10
  ret i32 %.0
}